; ModuleID = '60/376.c'
source_filename = "60/376.c"
target datalayout = "e-m:e-p270:32:32-p271:32:32-p272:64:64-i64:64-f80:128-n8:16:32:64-S128"
target triple = "x86_64-pc-linux-gnu"

@.str = private unnamed_addr constant [3 x i8] c"%d\00", align 1
@.str.1 = private unnamed_addr constant [6 x i8] c"empty\00", align 1
@.str.2 = private unnamed_addr constant [7 x i8] c"%d %d\0A\00", align 1

; Function Attrs: noinline nounwind uwtable
define dso_local i32 @main() #0 {
  %1 = alloca i32, align 4
  %2 = alloca i32, align 4
  %3 = alloca i32, align 4
  %4 = alloca i32, align 4
  %5 = alloca i32, align 4
  %6 = alloca i32, align 4
  %7 = alloca i32, align 4
  store i32 0, i32* %1, align 4
  %8 = call i32 (i8*, ...) @__isoc99_scanf(i8* getelementptr inbounds ([3 x i8], [3 x i8]* @.str, i64 0, i64 0), i32* %2)
  %9 = load i32, i32* %2, align 4
  %10 = icmp eq i32 %9, 1
  br i1 %10, label %11, label %13

11:                                               ; preds = %0
  %12 = call i32 (i8*, ...) @printf(i8* getelementptr inbounds ([6 x i8], [6 x i8]* @.str.1, i64 0, i64 0))
  br label %75

13:                                               ; preds = %0
  %14 = load i32, i32* %2, align 4
  %15 = icmp eq i32 %14, 2
  br i1 %15, label %22, label %16

16:                                               ; preds = %13
  %17 = load i32, i32* %2, align 4
  %18 = icmp eq i32 %17, 3
  br i1 %18, label %22, label %19

19:                                               ; preds = %16
  %20 = load i32, i32* %2, align 4
  %21 = icmp eq i32 %20, 4
  br i1 %21, label %22, label %24

22:                                               ; preds = %19, %16, %13
  %23 = call i32 (i8*, ...) @printf(i8* getelementptr inbounds ([6 x i8], [6 x i8]* @.str.1, i64 0, i64 0))
  br label %74

24:                                               ; preds = %19
  store i32 3, i32* %3, align 4
  br label %25

25:                                               ; preds = %70, %24
  %26 = load i32, i32* %3, align 4
  %27 = load i32, i32* %2, align 4
  %28 = sub nsw i32 %27, 2
  %29 = icmp sle i32 %26, %28
  br i1 %29, label %30, label %73

30:                                               ; preds = %25
  store i32 2, i32* %4, align 4
  br label %31

31:                                               ; preds = %43, %30
  %32 = load i32, i32* %4, align 4
  %33 = load i32, i32* %3, align 4
  %34 = icmp slt i32 %32, %33
  br i1 %34, label %35, label %46

35:                                               ; preds = %31
  %36 = load i32, i32* %3, align 4
  %37 = load i32, i32* %4, align 4
  %38 = srem i32 %36, %37
  store i32 %38, i32* %5, align 4
  %39 = load i32, i32* %5, align 4
  %40 = icmp eq i32 %39, 0
  br i1 %40, label %41, label %42

41:                                               ; preds = %35
  br label %69

42:                                               ; preds = %35
  br label %43

43:                                               ; preds = %42
  %44 = load i32, i32* %4, align 4
  %45 = add nsw i32 %44, 1
  store i32 %45, i32* %4, align 4
  br label %31

46:                                               ; preds = %31
  store i32 2, i32* %6, align 4
  br label %47

47:                                               ; preds = %61, %46
  %48 = load i32, i32* %6, align 4
  %49 = load i32, i32* %3, align 4
  %50 = add nsw i32 %49, 2
  %51 = icmp slt i32 %48, %50
  br i1 %51, label %52, label %64

52:                                               ; preds = %47
  %53 = load i32, i32* %3, align 4
  %54 = add nsw i32 %53, 2
  %55 = load i32, i32* %6, align 4
  %56 = srem i32 %54, %55
  store i32 %56, i32* %7, align 4
  %57 = load i32, i32* %7, align 4
  %58 = icmp eq i32 %57, 0
  br i1 %58, label %59, label %60

59:                                               ; preds = %52
  br label %69

60:                                               ; preds = %52
  br label %61

61:                                               ; preds = %60
  %62 = load i32, i32* %6, align 4
  %63 = add nsw i32 %62, 1
  store i32 %63, i32* %6, align 4
  br label %47

64:                                               ; preds = %47
  %65 = load i32, i32* %3, align 4
  %66 = load i32, i32* %3, align 4
  %67 = add nsw i32 %66, 2
  %68 = call i32 (i8*, ...) @printf(i8* getelementptr inbounds ([7 x i8], [7 x i8]* @.str.2, i64 0, i64 0), i32 %65, i32 %67)
  br label %69

69:                                               ; preds = %64, %59, %41
  br label %70

70:                                               ; preds = %69
  %71 = load i32, i32* %3, align 4
  %72 = add nsw i32 %71, 1
  store i32 %72, i32* %3, align 4
  br label %25

73:                                               ; preds = %25
  br label %74

74:                                               ; preds = %73, %22
  br label %75

75:                                               ; preds = %74, %11
  ret i32 0
}

declare dso_local i32 @__isoc99_scanf(i8*, ...) #1

declare dso_local i32 @printf(i8*, ...) #1


!llvm.module.flags = !{!0}
!llvm.ident = !{!1}

!0 = !{i32 1, !"wchar_size", i32 4}
!1 = !{!"clang version 10.0.0-4ubuntu1 "}
